target datalayout = "e-m:e-p270:32:32-p271:32:32-p272:64:64-i64:64-i128:128-f80:128-n8:16:32:64-S128"
target triple = "x86_64-pc-linux-gnu"

%struct.uv_semaphore_s = type { %union.pthread_mutex_t, %union.pthread_cond_t, i32 }
%union.pthread_mutex_t = type { %struct.__pthread_mutex_s }
%struct.__pthread_mutex_s = type { i32, i32, i32, i32, i32, i16, i16, %struct.__pthread_internal_list }
%struct.__pthread_internal_list = type { ptr, ptr }
%union.pthread_cond_t = type { %struct.__pthread_cond_s }
%struct.__pthread_cond_s = type { %union.__atomic_wide_counter, %union.__atomic_wide_counter, [2 x i32], [2 x i32], i32, i32, [2 x i32] }
%union.__atomic_wide_counter = type { i64 }
%union.pthread_condattr_t = type { i32 }

@glibc_version_check_once = internal global i32 0, align 4
@platform_needs_custom_semaphore = internal global i32 0, align 4

; Function Attrs: nounwind uwtable
define dso_local void @uv_mutex_destroy(ptr noundef %0) #0 {
  %2 = alloca ptr, align 8
  store ptr %0, ptr %2, align 8, !tbaa !4
  %3 = load ptr, ptr %2, align 8, !tbaa !4
  %4 = call i32 @pthread_mutex_destroy(ptr noundef %3) #8
  %5 = icmp ne i32 %4, 0
  br i1 %5, label %6, label %7

6:                                                ; preds = %1
  call void @abort() #9
  unreachable

7:                                                ; preds = %1
  ret void
}

; Function Attrs: nounwind uwtable
define dso_local i32 @uv_cond_init(ptr noundef %0) #0 {
  %2 = alloca i32, align 4
  %3 = alloca ptr, align 8
  %4 = alloca %union.pthread_condattr_t, align 4
  %5 = alloca i32, align 4
  %6 = alloca i32, align 4
  store ptr %0, ptr %3, align 8, !tbaa !4
  call void @llvm.lifetime.start.p0(i64 4, ptr %4) #8
  call void @llvm.lifetime.start.p0(i64 4, ptr %5) #8
  %7 = call i32 @pthread_condattr_init(ptr noundef %4) #8
  store i32 %7, ptr %5, align 4, !tbaa !8
  %8 = load i32, ptr %5, align 4, !tbaa !8
  %9 = icmp ne i32 %8, 0
  br i1 %9, label %10, label %13

10:                                               ; preds = %1
  %11 = load i32, ptr %5, align 4, !tbaa !8
  %12 = sub nsw i32 0, %11
  store i32 %12, ptr %2, align 4
  store i32 1, ptr %6, align 4
  br label %37

13:                                               ; preds = %1
  %14 = call i32 @pthread_condattr_setclock(ptr noundef %4, i32 noundef 1) #8
  store i32 %14, ptr %5, align 4, !tbaa !8
  %15 = load i32, ptr %5, align 4, !tbaa !8
  %16 = icmp ne i32 %15, 0
  br i1 %16, label %17, label %18

17:                                               ; preds = %13
  br label %33

18:                                               ; preds = %13
  %19 = load ptr, ptr %3, align 8, !tbaa !4
  %20 = call i32 @pthread_cond_init(ptr noundef %19, ptr noundef %4) #8
  store i32 %20, ptr %5, align 4, !tbaa !8
  %21 = load i32, ptr %5, align 4, !tbaa !8
  %22 = icmp ne i32 %21, 0
  br i1 %22, label %23, label %24

23:                                               ; preds = %18
  br label %33

24:                                               ; preds = %18
  %25 = call i32 @pthread_condattr_destroy(ptr noundef %4) #8
  store i32 %25, ptr %5, align 4, !tbaa !8
  %26 = load i32, ptr %5, align 4, !tbaa !8
  %27 = icmp ne i32 %26, 0
  br i1 %27, label %28, label %29

28:                                               ; preds = %24
  br label %30

29:                                               ; preds = %24
  store i32 0, ptr %2, align 4
  store i32 1, ptr %6, align 4
  br label %37

30:                                               ; preds = %28
  %31 = load ptr, ptr %3, align 8, !tbaa !4
  %32 = call i32 @pthread_cond_destroy(ptr noundef %31) #8
  br label %33

33:                                               ; preds = %30, %23, %17
  %34 = call i32 @pthread_condattr_destroy(ptr noundef %4) #8
  %35 = load i32, ptr %5, align 4, !tbaa !8
  %36 = sub nsw i32 0, %35
  store i32 %36, ptr %2, align 4
  store i32 1, ptr %6, align 4
  br label %37

37:                                               ; preds = %33, %29, %10
  call void @llvm.lifetime.end.p0(i64 4, ptr %5) #8
  call void @llvm.lifetime.end.p0(i64 4, ptr %4) #8
  %38 = load i32, ptr %2, align 4
  ret i32 %38
}

; Function Attrs: nounwind uwtable
define dso_local i32 @uv_mutex_init(ptr noundef %0) #0 {
  %2 = alloca ptr, align 8
  store ptr %0, ptr %2, align 8, !tbaa !4
  %3 = load ptr, ptr %2, align 8, !tbaa !4
  %4 = call i32 @pthread_mutex_init(ptr noundef %3, ptr noundef null) #8
  %5 = sub nsw i32 0, %4
  ret i32 %5
}

; Function Attrs: nounwind uwtable
define internal i32 @uv__sem_init(ptr noundef %0, i32 noundef %1) #0 {
  %3 = alloca i32, align 4
  %4 = alloca ptr, align 8
  %5 = alloca i32, align 4
  store ptr %0, ptr %4, align 8, !tbaa !4
  store i32 %1, ptr %5, align 4, !tbaa !8
  %6 = load ptr, ptr %4, align 8, !tbaa !4
  %7 = load i32, ptr %5, align 4, !tbaa !8
  %8 = call i32 @sem_init(ptr noundef %6, i32 noundef 0, i32 noundef %7) #8
  %9 = icmp ne i32 %8, 0
  br i1 %9, label %10, label %14

10:                                               ; preds = %2
  %11 = call ptr @__errno_location() #10
  %12 = load i32, ptr %11, align 4, !tbaa !8
  %13 = sub nsw i32 0, %12
  store i32 %13, ptr %3, align 4
  br label %15

14:                                               ; preds = %2
  store i32 0, ptr %3, align 4
  br label %15

15:                                               ; preds = %14, %10
  %16 = load i32, ptr %3, align 4
  ret i32 %16
}

; Function Attrs: nounwind uwtable
define internal i32 @uv__custom_sem_init(ptr noundef %0, i32 noundef %1) #0 {
  %3 = alloca i32, align 4
  %4 = alloca ptr, align 8
  %5 = alloca i32, align 4
  %6 = alloca i32, align 4
  %7 = alloca ptr, align 8
  %8 = alloca i32, align 4
  store ptr %0, ptr %4, align 8, !tbaa !4
  store i32 %1, ptr %5, align 4, !tbaa !8
  call void @llvm.lifetime.start.p0(i64 4, ptr %6) #8
  call void @llvm.lifetime.start.p0(i64 8, ptr %7) #8
  %9 = call ptr @uv__malloc(i64 noundef 96)
  store ptr %9, ptr %7, align 8, !tbaa !28
  %10 = load ptr, ptr %7, align 8, !tbaa !28
  %11 = icmp eq ptr %10, null
  br i1 %11, label %12, label %13

12:                                               ; preds = %2
  store i32 -12, ptr %3, align 4
  store i32 1, ptr %8, align 4
  br label %37

13:                                               ; preds = %2
  %14 = load ptr, ptr %7, align 8, !tbaa !28
  %15 = getelementptr inbounds nuw %struct.uv_semaphore_s, ptr %14, i32 0, i32 0
  %16 = call i32 @uv_mutex_init(ptr noundef %15)
  store i32 %16, ptr %6, align 4, !tbaa !8
  %17 = icmp ne i32 %16, 0
  br i1 %17, label %18, label %21

18:                                               ; preds = %13
  %19 = load ptr, ptr %7, align 8, !tbaa !28
  call void @uv__free(ptr noundef %19)
  %20 = load i32, ptr %6, align 4, !tbaa !8
  store i32 %20, ptr %3, align 4
  store i32 1, ptr %8, align 4
  br label %37

21:                                               ; preds = %13
  %22 = load ptr, ptr %7, align 8, !tbaa !28
  %23 = getelementptr inbounds nuw %struct.uv_semaphore_s, ptr %22, i32 0, i32 1
  %24 = call i32 @uv_cond_init(ptr noundef %23)
  store i32 %24, ptr %6, align 4, !tbaa !8
  %25 = icmp ne i32 %24, 0
  br i1 %25, label %26, label %31

26:                                               ; preds = %21
  %27 = load ptr, ptr %7, align 8, !tbaa !28
  %28 = getelementptr inbounds nuw %struct.uv_semaphore_s, ptr %27, i32 0, i32 0
  call void @uv_mutex_destroy(ptr noundef %28)
  %29 = load ptr, ptr %7, align 8, !tbaa !28
  call void @uv__free(ptr noundef %29)
  %30 = load i32, ptr %6, align 4, !tbaa !8
  store i32 %30, ptr %3, align 4
  store i32 1, ptr %8, align 4
  br label %37

31:                                               ; preds = %21
  %32 = load i32, ptr %5, align 4, !tbaa !8
  %33 = load ptr, ptr %7, align 8, !tbaa !28
  %34 = getelementptr inbounds nuw %struct.uv_semaphore_s, ptr %33, i32 0, i32 2
  store i32 %32, ptr %34, align 8, !tbaa !30
  %35 = load ptr, ptr %7, align 8, !tbaa !28
  %36 = load ptr, ptr %4, align 8, !tbaa !4
  store ptr %35, ptr %36, align 8, !tbaa !28
  store i32 0, ptr %3, align 4
  store i32 1, ptr %8, align 4
  br label %37

37:                                               ; preds = %31, %26, %18, %12
  call void @llvm.lifetime.end.p0(i64 8, ptr %7) #8
  call void @llvm.lifetime.end.p0(i64 4, ptr %6) #8
  %38 = load i32, ptr %3, align 4
  ret i32 %38
}

; Function Attrs: nounwind uwtable
define dso_local void @uv_once(ptr noundef %0, ptr noundef %1) #0 {
  %3 = alloca ptr, align 8
  %4 = alloca ptr, align 8
  store ptr %0, ptr %3, align 8, !tbaa !24
  store ptr %1, ptr %4, align 8, !tbaa !4
  %5 = load ptr, ptr %3, align 8, !tbaa !24
  %6 = load ptr, ptr %4, align 8, !tbaa !4
  %7 = call i32 @pthread_once(ptr noundef %5, ptr noundef %6)
  %8 = icmp ne i32 %7, 0
  br i1 %8, label %9, label %10

9:                                                ; preds = %2
  call void @abort() #9
  unreachable

10:                                               ; preds = %2
  ret void
}

; Function Attrs: nounwind uwtable
define dso_local i32 @uv_sem_init(ptr noundef %0, i32 noundef %1) #0 {
  %3 = alloca i32, align 4
  %4 = alloca ptr, align 8
  %5 = alloca i32, align 4
  store ptr %0, ptr %4, align 8, !tbaa !4
  store i32 %1, ptr %5, align 4, !tbaa !8
  call void @uv_once(ptr noundef @glibc_version_check_once, ptr noundef @glibc_version_check)
  %6 = load i32, ptr @platform_needs_custom_semaphore, align 4, !tbaa !8
  %7 = icmp ne i32 %6, 0
  br i1 %7, label %8, label %12

8:                                                ; preds = %2
  %9 = load ptr, ptr %4, align 8, !tbaa !4
  %10 = load i32, ptr %5, align 4, !tbaa !8
  %11 = call i32 @uv__custom_sem_init(ptr noundef %9, i32 noundef %10)
  store i32 %11, ptr %3, align 4
  br label %16

12:                                               ; preds = %2
  %13 = load ptr, ptr %4, align 8, !tbaa !4
  %14 = load i32, ptr %5, align 4, !tbaa !8
  %15 = call i32 @uv__sem_init(ptr noundef %13, i32 noundef %14)
  store i32 %15, ptr %3, align 4
  br label %16

16:                                               ; preds = %12, %8
  %17 = load i32, ptr %3, align 4
  ret i32 %17
}