; Function Attrs: nounwind uwtable
define dso_local range(i32 -2147483647, -2147483648) i32 @uv_sem_init(ptr noundef %0, i32 noundef %1) local_unnamed_addr #0 {
  %3 = alloca %union.pthread_condattr_t, align 4
  %4 = tail call i32 @pthread_once(ptr noundef nonnull @glibc_version_check_once, ptr noundef nonnull @glibc_version_check) #10
  %.not.i = icmp eq i32 %4, 0
  br i1 %.not.i, label %uv_once.exit, label %5

5:                                                ; preds = %2
  tail call void @abort() #11
  unreachable

uv_once.exit:                                     ; preds = %2
  %6 = load i32, ptr @platform_needs_custom_semaphore, align 4, !tbaa !14
  %.not = icmp eq i32 %6, 0
  br i1 %.not, label %30, label %7

7:                                                ; preds = %uv_once.exit
  %8 = tail call ptr @uv__malloc(i64 noundef 96) #10
  %9 = icmp eq ptr %8, null
  br i1 %9, label %uv__custom_sem_init.exit, label %10

10:                                               ; preds = %7
  %11 = tail call i32 @pthread_mutex_init(ptr noundef nonnull %8, ptr noundef null) #10
  %.not.i4 = icmp eq i32 %11, 0
  br i1 %.not.i4, label %14, label %12

12:                                               ; preds = %10
  %13 = sub nsw i32 0, %11
  tail call void @uv__free(ptr noundef nonnull %8) #10
  br label %uv__custom_sem_init.exit

14:                                               ; preds = %10
  %15 = getelementptr inbounds nuw i8, ptr %8, i64 40
  call void @llvm.lifetime.start.p0(i64 4, ptr nonnull %3) #10
  %16 = call i32 @pthread_condattr_init(ptr noundef nonnull %3) #10
  %.not.i.i = icmp eq i32 %16, 0
  br i1 %.not.i.i, label %17, label %uv_cond_init.exit.i

17:                                               ; preds = %14
  %18 = call i32 @pthread_condattr_setclock(ptr noundef nonnull %3, i32 noundef 1) #10
  %.not13.i.i = icmp eq i32 %18, 0
  br i1 %.not13.i.i, label %19, label %26

19:                                               ; preds = %17
  %20 = call i32 @pthread_cond_init(ptr noundef nonnull %15, ptr noundef nonnull %3) #10
  %.not14.i.i = icmp eq i32 %20, 0
  br i1 %.not14.i.i, label %21, label %26

21:                                               ; preds = %19
  %22 = call i32 @pthread_condattr_destroy(ptr noundef nonnull %3) #10
  %.not15.i.i = icmp eq i32 %22, 0
  br i1 %.not15.i.i, label %uv_cond_init.exit.thread.i, label %24

uv_cond_init.exit.thread.i:                       ; preds = %21
  call void @llvm.lifetime.end.p0(i64 4, ptr nonnull %3) #10
  %23 = getelementptr inbounds nuw i8, ptr %8, i64 88
  store i32 %1, ptr %23, align 8, !tbaa !15
  store ptr %8, ptr %0, align 8, !tbaa !17
  br label %uv__custom_sem_init.exit

24:                                               ; preds = %21
  %25 = call i32 @pthread_cond_destroy(ptr noundef nonnull %15) #10
  br label %26

26:                                               ; preds = %24, %19, %17
  %.0.i.i = phi i32 [ %18, %17 ], [ %20, %19 ], [ %22, %24 ]
  %27 = call i32 @pthread_condattr_destroy(ptr noundef nonnull %3) #10
  br label %uv_cond_init.exit.i

uv_cond_init.exit.i:                              ; preds = %26, %14
  %.pn.i = phi i32 [ %.0.i.i, %26 ], [ %16, %14 ]
  call void @llvm.lifetime.end.p0(i64 4, ptr nonnull %3) #10
  %28 = call i32 @pthread_mutex_destroy(ptr noundef nonnull %8) #10
  %.not.i16.i = icmp eq i32 %28, 0
  br i1 %.not.i16.i, label %uv_mutex_destroy.exit.i, label %29

29:                                               ; preds = %uv_cond_init.exit.i
  call void @abort() #11
  unreachable

uv_mutex_destroy.exit.i:                          ; preds = %uv_cond_init.exit.i
  %.08.i.i = sub nsw i32 0, %.pn.i
  call void @uv__free(ptr noundef nonnull %8) #10
  br label %uv__custom_sem_init.exit

30:                                               ; preds = %uv_once.exit
  %31 = tail call i32 @sem_init(ptr noundef %0, i32 noundef 0, i32 noundef %1) #10
  %.not.i5 = icmp eq i32 %31, 0
  br i1 %.not.i5, label %uv__custom_sem_init.exit, label %32

32:                                               ; preds = %30
  %33 = tail call ptr @__errno_location() #12
  %34 = load i32, ptr %33, align 4, !tbaa !14
  %35 = sub nsw i32 0, %34
  br label %uv__custom_sem_init.exit

uv__custom_sem_init.exit:                         ; preds = %32, %30, %uv_mutex_destroy.exit.i, %uv_cond_init.exit.thread.i, %12, %7
  %.0 = phi i32 [ %13, %12 ], [ %.08.i.i, %uv_mutex_destroy.exit.i ], [ 0, %uv_cond_init.exit.thread.i ], [ -12, %7 ], [ %35, %32 ], [ 0, %30 ]
  ret i32 %.0
}